target datalayout = "e-m:e-p270:32:32-p271:32:32-p272:64:64-i64:64-i128:128-f80:128-n8:16:32:64-S128"
target triple = "x86_64-unknown-linux-gnu"

; Function Attrs: mustprogress uwtable
define internal noundef zeroext i1 @_ZN7rocksdb12_GLOBAL__N_115PosixFileSystem16IsIOUringEnabledEv(ptr noundef nonnull align 8 dereferenceable(57) %this) #2 align 2 {
entry:
  %retval = alloca i1, align 1
  %this.addr = alloca ptr, align 8
  store ptr %this, ptr %this.addr, align 8
  br i1 icmp ne (ptr @RocksDbIOUringEnable, ptr null), label %land.lhs.true, label %if.else

land.lhs.true:                                    ; preds = %entry
  %call = call zeroext i1 @RocksDbIOUringEnable()
  br i1 %call, label %if.then, label %if.else

if.then:                                          ; preds = %land.lhs.true
  store i1 true, ptr %retval, align 1
  br label %return

if.else:                                          ; preds = %land.lhs.true, %entry
  store i1 false, ptr %retval, align 1
  br label %return

return:                                           ; preds = %if.else, %if.then
  %0 = load i1, ptr %retval, align 1
  ret i1 %0
}

; Function Attrs: mustprogress uwtable
define internal void @_ZN7rocksdb12_GLOBAL__N_115PosixFileSystem12SupportedOpsERl(ptr noundef nonnull align 8 dereferenceable(57) %this, ptr noundef nonnull align 8 dereferenceable(8) %supported_ops) unnamed_addr #2 align 2 {
entry:
  %this.addr = alloca ptr, align 8
  %supported_ops.addr = alloca ptr, align 8
  store ptr %this, ptr %this.addr, align 8
  store ptr %supported_ops, ptr %supported_ops.addr, align 8
  %this1 = load ptr, ptr %this.addr, align 8
  %0 = load ptr, ptr %supported_ops.addr, align 8
  store i64 0, ptr %0, align 8
  %call = call noundef zeroext i1 @_ZN7rocksdb12_GLOBAL__N_115PosixFileSystem16IsIOUringEnabledEv(ptr noundef nonnull align 8 dereferenceable(57) %this1)
  br i1 %call, label %if.then, label %if.end

if.then:                                          ; preds = %entry
  %1 = load ptr, ptr %supported_ops.addr, align 8
  %2 = load i64, ptr %1, align 8
  %or = or i64 %2, 1
  store i64 %or, ptr %1, align 8
  br label %if.end

if.end:                                           ; preds = %if.then, %entry
  ret void
}