; Function Attrs: mustprogress uwtable
define internal void @_ZN7rocksdb12_GLOBAL__N_115PosixFileSystem12SupportedOpsERl(ptr nocapture nonnull readnone align 8 %this, ptr nocapture noundef nonnull align 8 dereferenceable(8) %supported_ops) unnamed_addr #5 align 2 {
entry:
  store i64 0, ptr %supported_ops, align 8
  br i1 icmp ne (ptr @RocksDbIOUringEnable, ptr null), label %land.lhs.true.i, label %if.end

land.lhs.true.i:                                  ; preds = %entry
  %call.i = tail call zeroext i1 @RocksDbIOUringEnable()
  br i1 %call.i, label %if.then, label %if.end

if.then:                                          ; preds = %land.lhs.true.i
  %0 = load i64, ptr %supported_ops, align 8
  %or = or i64 %0, 1
  store i64 %or, ptr %supported_ops, align 8
  br label %if.end

if.end:                                           ; preds = %land.lhs.true.i, %entry, %if.then
  ret void
}